
/home/zsq259/Desktop/1/RISC-V-CPU/riscv/testspace/test.om:     file format elf32-littleriscv


Disassembly of section .rom:

00000000 <.rom>:
   0:	00020137          	lui	sp,0x20
   4:	300010ef          	jal	1304 <main>
   8:	0ff00513          	li	a0,255
   c:	000306b7          	lui	a3,0x30
  10:	00a68223          	sb	a0,4(a3) # 30004 <__heap_start+0x2e004>
  14:	ff9ff06f          	j	c <cd-0xff4>

Disassembly of section .text:

00001000 <cd>:
    1000:	fb010113          	add	sp,sp,-80 # 1ffb0 <__heap_start+0x1dfb0>
    1004:	04912223          	sw	s1,68(sp)
    1008:	05212023          	sw	s2,64(sp)
    100c:	03312e23          	sw	s3,60(sp)
    1010:	03412c23          	sw	s4,56(sp)
    1014:	03512a23          	sw	s5,52(sp)
    1018:	03812423          	sw	s8,40(sp)
    101c:	03912223          	sw	s9,36(sp)
    1020:	00030a37          	lui	s4,0x30
    1024:	000309b7          	lui	s3,0x30
    1028:	00030937          	lui	s2,0x30
    102c:	000304b7          	lui	s1,0x30
    1030:	00055ab7          	lui	s5,0x55
    1034:	00001cb7          	lui	s9,0x1
    1038:	00001c37          	lui	s8,0x1
    103c:	04812423          	sw	s0,72(sp)
    1040:	03612823          	sw	s6,48(sp)
    1044:	03712623          	sw	s7,44(sp)
    1048:	03a12023          	sw	s10,32(sp)
    104c:	01b12e23          	sw	s11,28(sp)
    1050:	04112623          	sw	ra,76(sp)
    1054:	00050d93          	mv	s11,a0
    1058:	00058b13          	mv	s6,a1
    105c:	00060e13          	mv	t3,a2
    1060:	00068b93          	mv	s7,a3
    1064:	00050d13          	mv	s10,a0
    1068:	424c8c93          	add	s9,s9,1060 # 1424 <main+0x120>
    106c:	42cc0c13          	add	s8,s8,1068 # 142c <main+0x128>
    1070:	004a0a13          	add	s4,s4,4 # 30004 <__heap_start+0x2e004>
    1074:	00598993          	add	s3,s3,5 # 30005 <__heap_start+0x2e005>
    1078:	00690913          	add	s2,s2,6 # 30006 <__heap_start+0x2e006>
    107c:	00748493          	add	s1,s1,7 # 30007 <__heap_start+0x2e007>
    1080:	72fa8a93          	add	s5,s5,1839 # 5572f <__heap_start+0x5372f>
    1084:	00100313          	li	t1,1
    1088:	00030437          	lui	s0,0x30
    108c:	000a4583          	lbu	a1,0(s4)
    1090:	0009c783          	lbu	a5,0(s3)
    1094:	00094683          	lbu	a3,0(s2)
    1098:	0004c603          	lbu	a2,0(s1)
    109c:	00879793          	sll	a5,a5,0x8
    10a0:	01069693          	sll	a3,a3,0x10
    10a4:	01861613          	sll	a2,a2,0x18
    10a8:	00d66633          	or	a2,a2,a3
    10ac:	00b66633          	or	a2,a2,a1
    10b0:	00f66633          	or	a2,a2,a5
    10b4:	000a4683          	lbu	a3,0(s4)
    10b8:	0009c803          	lbu	a6,0(s3)
    10bc:	00094883          	lbu	a7,0(s2)
    10c0:	0004c783          	lbu	a5,0(s1)
    10c4:	00881813          	sll	a6,a6,0x8
    10c8:	01089893          	sll	a7,a7,0x10
    10cc:	01879793          	sll	a5,a5,0x18
    10d0:	0117e7b3          	or	a5,a5,a7
    10d4:	00d7e7b3          	or	a5,a5,a3
    10d8:	0107e7b3          	or	a5,a5,a6
    10dc:	40c787b3          	sub	a5,a5,a2
    10e0:	fcfafae3          	bgeu	s5,a5,10b4 <cd+0xb4>
    10e4:	0a6d0863          	beq	s10,t1,1194 <cd+0x194>
    10e8:	fffd0d13          	add	s10,s10,-1
    10ec:	000e0693          	mv	a3,t3
    10f0:	000b8613          	mv	a2,s7
    10f4:	000b0593          	mv	a1,s6
    10f8:	000d0513          	mv	a0,s10
    10fc:	01c12623          	sw	t3,12(sp)
    1100:	f01ff0ef          	jal	1000 <cd>
    1104:	00c12e03          	lw	t3,12(sp)
    1108:	00050713          	mv	a4,a0
    110c:	000c8693          	mv	a3,s9
    1110:	06d00793          	li	a5,109
    1114:	00030637          	lui	a2,0x30
    1118:	00100313          	li	t1,1
    111c:	00f60023          	sb	a5,0(a2) # 30000 <__heap_start+0x2e000>
    1120:	0016c783          	lbu	a5,1(a3)
    1124:	00168693          	add	a3,a3,1
    1128:	fe079ae3          	bnez	a5,111c <cd+0x11c>
    112c:	000b4783          	lbu	a5,0(s6)
    1130:	00078c63          	beqz	a5,1148 <cd+0x148>
    1134:	000b0693          	mv	a3,s6
    1138:	00f40023          	sb	a5,0(s0) # 30000 <__heap_start+0x2e000>
    113c:	0016c783          	lbu	a5,1(a3)
    1140:	00168693          	add	a3,a3,1
    1144:	fe079ae3          	bnez	a5,1138 <cd+0x138>
    1148:	000c0693          	mv	a3,s8
    114c:	02000793          	li	a5,32
    1150:	00f40023          	sb	a5,0(s0)
    1154:	0016c783          	lbu	a5,1(a3)
    1158:	00168693          	add	a3,a3,1
    115c:	fe079ae3          	bnez	a5,1150 <cd+0x150>
    1160:	000bc783          	lbu	a5,0(s7)
    1164:	00078c63          	beqz	a5,117c <cd+0x17c>
    1168:	000b8693          	mv	a3,s7
    116c:	00f40023          	sb	a5,0(s0)
    1170:	0016c783          	lbu	a5,1(a3)
    1174:	00168693          	add	a3,a3,1
    1178:	fe079ae3          	bnez	a5,116c <cd+0x16c>
    117c:	000b0793          	mv	a5,s6
    1180:	00a00693          	li	a3,10
    1184:	000e0b13          	mv	s6,t3
    1188:	00d40023          	sb	a3,0(s0)
    118c:	00078e13          	mv	t3,a5
    1190:	efdff06f          	j	108c <cd+0x8c>
    1194:	fffd8d93          	add	s11,s11,-1
    1198:	06d00793          	li	a5,109
    119c:	000306b7          	lui	a3,0x30
    11a0:	00f68023          	sb	a5,0(a3) # 30000 <__heap_start+0x2e000>
    11a4:	001cc783          	lbu	a5,1(s9)
    11a8:	001c8c93          	add	s9,s9,1
    11ac:	fe079ae3          	bnez	a5,11a0 <cd+0x1a0>
    11b0:	000b4783          	lbu	a5,0(s6)
    11b4:	00078c63          	beqz	a5,11cc <cd+0x1cc>
    11b8:	000306b7          	lui	a3,0x30
    11bc:	00f68023          	sb	a5,0(a3) # 30000 <__heap_start+0x2e000>
    11c0:	001b4783          	lbu	a5,1(s6)
    11c4:	001b0b13          	add	s6,s6,1
    11c8:	fe079ae3          	bnez	a5,11bc <cd+0x1bc>
    11cc:	02000793          	li	a5,32
    11d0:	000306b7          	lui	a3,0x30
    11d4:	00f68023          	sb	a5,0(a3) # 30000 <__heap_start+0x2e000>
    11d8:	001c4783          	lbu	a5,1(s8)
    11dc:	001c0c13          	add	s8,s8,1
    11e0:	fe079ae3          	bnez	a5,11d4 <cd+0x1d4>
    11e4:	000bc783          	lbu	a5,0(s7)
    11e8:	00078c63          	beqz	a5,1200 <cd+0x200>
    11ec:	000306b7          	lui	a3,0x30
    11f0:	00f68023          	sb	a5,0(a3) # 30000 <__heap_start+0x2e000>
    11f4:	001bc783          	lbu	a5,1(s7)
    11f8:	001b8b93          	add	s7,s7,1
    11fc:	fe079ae3          	bnez	a5,11f0 <cd+0x1f0>
    1200:	000307b7          	lui	a5,0x30
    1204:	00a00693          	li	a3,10
    1208:	00d78023          	sb	a3,0(a5) # 30000 <__heap_start+0x2e000>
    120c:	04c12083          	lw	ra,76(sp)
    1210:	04812403          	lw	s0,72(sp)
    1214:	00170713          	add	a4,a4,1
    1218:	04412483          	lw	s1,68(sp)
    121c:	04012903          	lw	s2,64(sp)
    1220:	03c12983          	lw	s3,60(sp)
    1224:	03812a03          	lw	s4,56(sp)
    1228:	03412a83          	lw	s5,52(sp)
    122c:	03012b03          	lw	s6,48(sp)
    1230:	02c12b83          	lw	s7,44(sp)
    1234:	02812c03          	lw	s8,40(sp)
    1238:	02412c83          	lw	s9,36(sp)
    123c:	02012d03          	lw	s10,32(sp)
    1240:	01b70533          	add	a0,a4,s11
    1244:	01c12d83          	lw	s11,28(sp)
    1248:	05010113          	add	sp,sp,80
    124c:	00008067          	ret

00001250 <__divsi3>:
    1250:	06054063          	bltz	a0,12b0 <__umodsi3+0x10>
    1254:	0605c663          	bltz	a1,12c0 <__umodsi3+0x20>

00001258 <__hidden___udivsi3>:
    1258:	00058613          	mv	a2,a1
    125c:	00050593          	mv	a1,a0
    1260:	fff00513          	li	a0,-1
    1264:	02060c63          	beqz	a2,129c <__hidden___udivsi3+0x44>
    1268:	00100693          	li	a3,1
    126c:	00b67a63          	bgeu	a2,a1,1280 <__hidden___udivsi3+0x28>
    1270:	00c05863          	blez	a2,1280 <__hidden___udivsi3+0x28>
    1274:	00161613          	sll	a2,a2,0x1
    1278:	00169693          	sll	a3,a3,0x1
    127c:	feb66ae3          	bltu	a2,a1,1270 <__hidden___udivsi3+0x18>
    1280:	00000513          	li	a0,0
    1284:	00c5e663          	bltu	a1,a2,1290 <__hidden___udivsi3+0x38>
    1288:	40c585b3          	sub	a1,a1,a2
    128c:	00d56533          	or	a0,a0,a3
    1290:	0016d693          	srl	a3,a3,0x1
    1294:	00165613          	srl	a2,a2,0x1
    1298:	fe0696e3          	bnez	a3,1284 <__hidden___udivsi3+0x2c>
    129c:	00008067          	ret

000012a0 <__umodsi3>:
    12a0:	00008293          	mv	t0,ra
    12a4:	fb5ff0ef          	jal	1258 <__hidden___udivsi3>
    12a8:	00058513          	mv	a0,a1
    12ac:	00028067          	jr	t0
    12b0:	40a00533          	neg	a0,a0
    12b4:	00b04863          	bgtz	a1,12c4 <__umodsi3+0x24>
    12b8:	40b005b3          	neg	a1,a1
    12bc:	f9dff06f          	j	1258 <__hidden___udivsi3>
    12c0:	40b005b3          	neg	a1,a1
    12c4:	00008293          	mv	t0,ra
    12c8:	f91ff0ef          	jal	1258 <__hidden___udivsi3>
    12cc:	40a00533          	neg	a0,a0
    12d0:	00028067          	jr	t0

000012d4 <__modsi3>:
    12d4:	00008293          	mv	t0,ra
    12d8:	0005ca63          	bltz	a1,12ec <__modsi3+0x18>
    12dc:	00054c63          	bltz	a0,12f4 <__modsi3+0x20>
    12e0:	f79ff0ef          	jal	1258 <__hidden___udivsi3>
    12e4:	00058513          	mv	a0,a1
    12e8:	00028067          	jr	t0
    12ec:	40b005b3          	neg	a1,a1
    12f0:	fe0558e3          	bgez	a0,12e0 <__modsi3+0xc>
    12f4:	40a00533          	neg	a0,a0
    12f8:	f61ff0ef          	jal	1258 <__hidden___udivsi3>
    12fc:	40b00533          	neg	a0,a1
    1300:	00028067          	jr	t0

Disassembly of section .text.startup:

00001304 <main>:
    1304:	fb010113          	add	sp,sp,-80
    1308:	04100793          	li	a5,65
    130c:	00f12623          	sw	a5,12(sp)
    1310:	04200793          	li	a5,66
    1314:	00f12a23          	sw	a5,20(sp)
    1318:	00000713          	li	a4,0
    131c:	04300793          	li	a5,67
    1320:	01c10693          	add	a3,sp,28
    1324:	01410613          	add	a2,sp,20
    1328:	00c10593          	add	a1,sp,12
    132c:	00a00513          	li	a0,10
    1330:	04812423          	sw	s0,72(sp)
    1334:	03612823          	sw	s6,48(sp)
    1338:	04112623          	sw	ra,76(sp)
    133c:	04912223          	sw	s1,68(sp)
    1340:	05212023          	sw	s2,64(sp)
    1344:	03312e23          	sw	s3,60(sp)
    1348:	03412c23          	sw	s4,56(sp)
    134c:	03512a23          	sw	s5,52(sp)
    1350:	00010823          	sb	zero,16(sp)
    1354:	00010c23          	sb	zero,24(sp)
    1358:	00f12e23          	sw	a5,28(sp)
    135c:	02010023          	sb	zero,32(sp)
    1360:	ca1ff0ef          	jal	1000 <cd>
    1364:	00050413          	mv	s0,a0
    1368:	00000b13          	li	s6,0
    136c:	00055663          	bgez	a0,1378 <main+0x74>
    1370:	40a00433          	neg	s0,a0
    1374:	00100b13          	li	s6,1
    1378:	00000913          	li	s2,0
    137c:	02410993          	add	s3,sp,36
    1380:	00900a93          	li	s5,9
    1384:	00a00593          	li	a1,10
    1388:	00040513          	mv	a0,s0
    138c:	f49ff0ef          	jal	12d4 <__modsi3>
    1390:	00090493          	mv	s1,s2
    1394:	00190913          	add	s2,s2,1
    1398:	03050793          	add	a5,a0,48
    139c:	01298a33          	add	s4,s3,s2
    13a0:	00040513          	mv	a0,s0
    13a4:	fefa0fa3          	sb	a5,-1(s4)
    13a8:	00a00593          	li	a1,10
    13ac:	00040a13          	mv	s4,s0
    13b0:	ea1ff0ef          	jal	1250 <__divsi3>
    13b4:	00050413          	mv	s0,a0
    13b8:	fd4ac6e3          	blt	s5,s4,1384 <main+0x80>
    13bc:	000b0c63          	beqz	s6,13d4 <main+0xd0>
    13c0:	03090793          	add	a5,s2,48
    13c4:	002787b3          	add	a5,a5,sp
    13c8:	02d00713          	li	a4,45
    13cc:	fee78a23          	sb	a4,-12(a5)
    13d0:	00090493          	mv	s1,s2
    13d4:	009987b3          	add	a5,s3,s1
    13d8:	00030637          	lui	a2,0x30
    13dc:	0007c683          	lbu	a3,0(a5)
    13e0:	00078713          	mv	a4,a5
    13e4:	fff78793          	add	a5,a5,-1
    13e8:	00d60023          	sb	a3,0(a2) # 30000 <__heap_start+0x2e000>
    13ec:	fee998e3          	bne	s3,a4,13dc <main+0xd8>
    13f0:	00a00793          	li	a5,10
    13f4:	00f60023          	sb	a5,0(a2)
    13f8:	04c12083          	lw	ra,76(sp)
    13fc:	04812403          	lw	s0,72(sp)
    1400:	04412483          	lw	s1,68(sp)
    1404:	04012903          	lw	s2,64(sp)
    1408:	03c12983          	lw	s3,60(sp)
    140c:	03812a03          	lw	s4,56(sp)
    1410:	03412a83          	lw	s5,52(sp)
    1414:	03012b03          	lw	s6,48(sp)
    1418:	00000513          	li	a0,0
    141c:	05010113          	add	sp,sp,80
    1420:	00008067          	ret

Disassembly of section .rodata.str1.4:

00001424 <__bss_end-0xe>:
    1424:	6f6d                	.insn	2, 0x6f6d
    1426:	6576                	.insn	2, 0x6576
    1428:	0020                	.insn	2, 0x0020
    142a:	0000                	.insn	2, 0x
    142c:	2d20                	.insn	2, 0x2d20
    142e:	3e2d                	.insn	2, 0x3e2d
    1430:	0020                	.insn	2, 0x0020

Disassembly of section .riscv.attributes:

00000000 <.riscv.attributes>:
   0:	1b41                	.insn	2, 0x1b41
   2:	0000                	.insn	2, 0x
   4:	7200                	.insn	2, 0x7200
   6:	7369                	.insn	2, 0x7369
   8:	01007663          	bgeu	zero,a6,14 <cd-0xfec>
   c:	0011                	.insn	2, 0x0011
   e:	0000                	.insn	2, 0x
  10:	1004                	.insn	2, 0x1004
  12:	7205                	.insn	2, 0x7205
  14:	3376                	.insn	2, 0x3376
  16:	6932                	.insn	2, 0x6932
  18:	7032                	.insn	2, 0x7032
  1a:	0031                	.insn	2, 0x0031

Disassembly of section .comment:

00000000 <.comment>:
   0:	3a434347          	.insn	4, 0x3a434347
   4:	2820                	.insn	2, 0x2820
   6:	2029                	.insn	2, 0x2029
   8:	3331                	.insn	2, 0x3331
   a:	322e                	.insn	2, 0x322e
   c:	302e                	.insn	2, 0x302e
	...

Disassembly of section .debug_line:

00000000 <.debug_line>:
   0:	0000014f          	.insn	4, 0x014f
   4:	0005                	.insn	2, 0x0005
   6:	0004                	.insn	2, 0x0004
   8:	002e                	.insn	2, 0x002e
   a:	0000                	.insn	2, 0x
   c:	0101                	.insn	2, 0x0101
   e:	fb01                	.insn	2, 0xfb01
  10:	0d0e                	.insn	2, 0x0d0e
  12:	0100                	.insn	2, 0x0100
  14:	0101                	.insn	2, 0x0101
  16:	0001                	.insn	2, 0x0001
  18:	0000                	.insn	2, 0x
  1a:	0001                	.insn	2, 0x0001
  1c:	0100                	.insn	2, 0x0100
  1e:	0101                	.insn	2, 0x0101
  20:	021f 0000 0000      	.insn	6, 0x021f
  26:	0051                	.insn	2, 0x0051
  28:	0000                	.insn	2, 0x
  2a:	0102                	.insn	2, 0x0102
  2c:	021f 020f 0074      	.insn	6, 0x0074020f021f
  32:	0000                	.insn	2, 0x
  34:	7401                	.insn	2, 0x7401
  36:	0000                	.insn	2, 0x
  38:	0100                	.insn	2, 0x0100
  3a:	0500                	.insn	2, 0x0500
  3c:	5002                	.insn	2, 0x5002
  3e:	0012                	.insn	2, 0x0012
  40:	0300                	.insn	2, 0x0300
  42:	00c4                	.insn	2, 0x00c4
  44:	0301                	.insn	2, 0x0301
  46:	0901                	.insn	2, 0x0901
  48:	0004                	.insn	2, 0x0004
  4a:	0301                	.insn	2, 0x0301
  4c:	0904                	.insn	2, 0x0904
  4e:	0004                	.insn	2, 0x0004
  50:	0301                	.insn	2, 0x0301
  52:	0901                	.insn	2, 0x0901
  54:	0004                	.insn	2, 0x0004
  56:	0301                	.insn	2, 0x0301
  58:	0901                	.insn	2, 0x0901
  5a:	0004                	.insn	2, 0x0004
  5c:	0301                	.insn	2, 0x0301
  5e:	0901                	.insn	2, 0x0901
  60:	0004                	.insn	2, 0x0004
  62:	0301                	.insn	2, 0x0301
  64:	0901                	.insn	2, 0x0901
  66:	0004                	.insn	2, 0x0004
  68:	0301                	.insn	2, 0x0301
  6a:	0901                	.insn	2, 0x0901
  6c:	0004                	.insn	2, 0x0004
  6e:	0301                	.insn	2, 0x0301
  70:	0902                	.insn	2, 0x0902
  72:	0004                	.insn	2, 0x0004
  74:	0301                	.insn	2, 0x0301
  76:	0901                	.insn	2, 0x0901
  78:	0004                	.insn	2, 0x0004
  7a:	0301                	.insn	2, 0x0301
  7c:	0901                	.insn	2, 0x0901
  7e:	0004                	.insn	2, 0x0004
  80:	0301                	.insn	2, 0x0301
  82:	0901                	.insn	2, 0x0901
  84:	0004                	.insn	2, 0x0004
  86:	0301                	.insn	2, 0x0301
  88:	0902                	.insn	2, 0x0902
  8a:	0004                	.insn	2, 0x0004
  8c:	0301                	.insn	2, 0x0301
  8e:	0902                	.insn	2, 0x0902
  90:	0004                	.insn	2, 0x0004
  92:	0301                	.insn	2, 0x0301
  94:	0901                	.insn	2, 0x0901
  96:	0004                	.insn	2, 0x0004
  98:	0301                	.insn	2, 0x0301
  9a:	0901                	.insn	2, 0x0901
  9c:	0004                	.insn	2, 0x0004
  9e:	0301                	.insn	2, 0x0301
  a0:	0902                	.insn	2, 0x0902
  a2:	0004                	.insn	2, 0x0004
  a4:	0301                	.insn	2, 0x0301
  a6:	0901                	.insn	2, 0x0901
  a8:	0004                	.insn	2, 0x0004
  aa:	0301                	.insn	2, 0x0301
  ac:	0901                	.insn	2, 0x0901
  ae:	0004                	.insn	2, 0x0004
  b0:	0301                	.insn	2, 0x0301
  b2:	0902                	.insn	2, 0x0902
  b4:	0004                	.insn	2, 0x0004
  b6:	0301                	.insn	2, 0x0301
  b8:	0906                	.insn	2, 0x0906
  ba:	0004                	.insn	2, 0x0004
  bc:	0301                	.insn	2, 0x0301
  be:	0901                	.insn	2, 0x0901
  c0:	0004                	.insn	2, 0x0004
  c2:	0301                	.insn	2, 0x0301
  c4:	0901                	.insn	2, 0x0901
  c6:	0004                	.insn	2, 0x0004
  c8:	0301                	.insn	2, 0x0301
  ca:	0901                	.insn	2, 0x0901
  cc:	0004                	.insn	2, 0x0004
  ce:	0301                	.insn	2, 0x0301
  d0:	0905                	.insn	2, 0x0905
  d2:	0004                	.insn	2, 0x0004
  d4:	0301                	.insn	2, 0x0301
  d6:	0902                	.insn	2, 0x0902
  d8:	0004                	.insn	2, 0x0004
  da:	0301                	.insn	2, 0x0301
  dc:	0902                	.insn	2, 0x0902
  de:	0004                	.insn	2, 0x0004
  e0:	0301                	.insn	2, 0x0301
  e2:	0901                	.insn	2, 0x0901
  e4:	0004                	.insn	2, 0x0004
  e6:	0301                	.insn	2, 0x0301
  e8:	0902                	.insn	2, 0x0902
  ea:	0004                	.insn	2, 0x0004
  ec:	0301                	.insn	2, 0x0301
  ee:	0902                	.insn	2, 0x0902
  f0:	0004                	.insn	2, 0x0004
  f2:	0301                	.insn	2, 0x0301
  f4:	0901                	.insn	2, 0x0901
  f6:	0004                	.insn	2, 0x0004
  f8:	0301                	.insn	2, 0x0301
  fa:	0901                	.insn	2, 0x0901
  fc:	0004                	.insn	2, 0x0004
  fe:	0301                	.insn	2, 0x0301
 100:	0901                	.insn	2, 0x0901
 102:	0004                	.insn	2, 0x0004
 104:	0301                	.insn	2, 0x0301
 106:	0904                	.insn	2, 0x0904
 108:	0004                	.insn	2, 0x0004
 10a:	0301                	.insn	2, 0x0301
 10c:	0901                	.insn	2, 0x0901
 10e:	0004                	.insn	2, 0x0004
 110:	0301                	.insn	2, 0x0301
 112:	0901                	.insn	2, 0x0901
 114:	0004                	.insn	2, 0x0004
 116:	0301                	.insn	2, 0x0301
 118:	0902                	.insn	2, 0x0902
 11a:	0004                	.insn	2, 0x0004
 11c:	0301                	.insn	2, 0x0301
 11e:	0901                	.insn	2, 0x0901
 120:	0004                	.insn	2, 0x0004
 122:	0301                	.insn	2, 0x0301
 124:	0901                	.insn	2, 0x0901
 126:	0004                	.insn	2, 0x0004
 128:	0301                	.insn	2, 0x0301
 12a:	0902                	.insn	2, 0x0902
 12c:	0004                	.insn	2, 0x0004
 12e:	0301                	.insn	2, 0x0301
 130:	0901                	.insn	2, 0x0901
 132:	0004                	.insn	2, 0x0004
 134:	0301                	.insn	2, 0x0301
 136:	0902                	.insn	2, 0x0902
 138:	0004                	.insn	2, 0x0004
 13a:	0301                	.insn	2, 0x0301
 13c:	0901                	.insn	2, 0x0901
 13e:	0004                	.insn	2, 0x0004
 140:	0301                	.insn	2, 0x0301
 142:	0901                	.insn	2, 0x0901
 144:	0004                	.insn	2, 0x0004
 146:	0301                	.insn	2, 0x0301
 148:	0901                	.insn	2, 0x0901
 14a:	0004                	.insn	2, 0x0004
 14c:	0901                	.insn	2, 0x0901
 14e:	0004                	.insn	2, 0x0004
 150:	0100                	.insn	2, 0x0100
 152:	Address 0x152 is out of bounds.


Disassembly of section .debug_line_str:

00000000 <.debug_line_str>:
   0:	6d6f682f          	.insn	4, 0x6d6f682f
   4:	2f65                	.insn	2, 0x2f65
   6:	2f706b77          	.insn	4, 0x2f706b77
   a:	6972                	.insn	2, 0x6972
   c:	2d766373          	.insn	4, 0x2d766373
  10:	2d756e67          	.insn	4, 0x2d756e67
  14:	6f74                	.insn	2, 0x6f74
  16:	68636c6f          	jal	s8,3669c <__heap_start+0x3469c>
  1a:	6961                	.insn	2, 0x6961
  1c:	2f6e                	.insn	2, 0x2f6e
  1e:	7562                	.insn	2, 0x7562
  20:	6c69                	.insn	2, 0x6c69
  22:	2d64                	.insn	2, 0x2d64
  24:	2d636367          	.insn	4, 0x2d636367
  28:	656e                	.insn	2, 0x656e
  2a:	62696c77          	.insn	4, 0x62696c77
  2e:	732d                	.insn	2, 0x732d
  30:	6174                	.insn	2, 0x6174
  32:	2f326567          	.insn	4, 0x2f326567
  36:	6972                	.insn	2, 0x6972
  38:	33766373          	.insn	4, 0x33766373
  3c:	2d32                	.insn	2, 0x2d32
  3e:	6e75                	.insn	2, 0x6e75
  40:	776f6e6b          	.insn	4, 0x776f6e6b
  44:	2d6e                	.insn	2, 0x2d6e
  46:	6c65                	.insn	2, 0x6c65
  48:	2f66                	.insn	2, 0x2f66
  4a:	696c                	.insn	2, 0x696c
  4c:	6762                	.insn	2, 0x6762
  4e:	2e006363          	bltu	zero,zero,334 <cd-0xccc>
  52:	2f2e                	.insn	2, 0x2f2e
  54:	2e2e                	.insn	2, 0x2e2e
  56:	2f2e2e2f          	.insn	4, 0x2f2e2e2f
  5a:	2f2e                	.insn	2, 0x2f2e
  5c:	2f636367          	.insn	4, 0x2f636367
  60:	696c                	.insn	2, 0x696c
  62:	6762                	.insn	2, 0x6762
  64:	632f6363          	bltu	t5,s2,68a <cd-0x976>
  68:	69666e6f          	jal	t3,666fe <__heap_start+0x646fe>
  6c:	69722f67          	.insn	4, 0x69722f67
  70:	00766373          	.insn	4, 0x00766373
  74:	6964                	.insn	2, 0x6964
  76:	2e76                	.insn	2, 0x2e76
  78:	Address 0x78 is out of bounds.


Disassembly of section .debug_info:

00000000 <.debug_info>:
   0:	0000005b          	.insn	4, 0x005b
   4:	0005                	.insn	2, 0x0005
   6:	0401                	.insn	2, 0x0401
   8:	0000                	.insn	2, 0x
   a:	0000                	.insn	2, 0x
   c:	0001                	.insn	2, 0x0001
   e:	0000                	.insn	2, 0x
  10:	5000                	.insn	2, 0x5000
  12:	0012                	.insn	2, 0x0012
  14:	b400                	.insn	2, 0xb400
  16:	0001                	.insn	2, 0x0001
  18:	0000                	.insn	2, 0x
  1a:	2900                	.insn	2, 0x2900
  1c:	0000                	.insn	2, 0x
  1e:	7a00                	.insn	2, 0x7a00
  20:	0000                	.insn	2, 0x
  22:	0100                	.insn	2, 0x0100
  24:	0280                	.insn	2, 0x0280
  26:	0086                	.insn	2, 0x0086
  28:	0000                	.insn	2, 0x
  2a:	505d                	.insn	2, 0x505d
  2c:	0012                	.insn	2, 0x0012
  2e:	8400                	.insn	2, 0x8400
  30:	0201                	.insn	2, 0x0201
  32:	0098                	.insn	2, 0x0098
  34:	0000                	.insn	2, 0x
  36:	585d                	.insn	2, 0x585d
  38:	0012                	.insn	2, 0x0012
  3a:	4800                	.insn	2, 0x4800
  3c:	8f02                	.insn	2, 0x8f02
  3e:	0000                	.insn	2, 0x
  40:	5d00                	.insn	2, 0x5d00
  42:	1258                	.insn	2, 0x1258
  44:	0000                	.insn	2, 0x
  46:	0248                	.insn	2, 0x0248
  48:	00a2                	.insn	2, 0x00a2
  4a:	0000                	.insn	2, 0x
  4c:	a05d                	.insn	2, 0xa05d
  4e:	0012                	.insn	2, 0x0012
  50:	1000                	.insn	2, 0x1000
  52:	ac02                	.insn	2, 0xac02
  54:	0000                	.insn	2, 0x
  56:	5d00                	.insn	2, 0x5d00
  58:	12d4                	.insn	2, 0x12d4
  5a:	0000                	.insn	2, 0x
  5c:	0330                	.insn	2, 0x0330
	...

Disassembly of section .debug_abbrev:

00000000 <.debug_abbrev>:
   0:	1101                	.insn	2, 0x1101
   2:	1001                	.insn	2, 0x1001
   4:	12011117          	auipc	sp,0x12011
   8:	1b0e030f          	.insn	4, 0x1b0e030f
   c:	250e                	.insn	2, 0x250e
   e:	130e                	.insn	2, 0x130e
  10:	0005                	.insn	2, 0x0005
  12:	0200                	.insn	2, 0x0200
  14:	002e                	.insn	2, 0x002e
  16:	193f0e03          	lb	t3,403(t5)
  1a:	1549                	.insn	2, 0x1549
  1c:	0111                	.insn	2, 0x0111
  1e:	0f12                	.insn	2, 0x0f12
  20:	0000                	.insn	2, 0x
  22:	00003b03          	.insn	4, 0x3b03
	...

Disassembly of section .debug_aranges:

00000000 <.debug_aranges>:
   0:	001c                	.insn	2, 0x001c
   2:	0000                	.insn	2, 0x
   4:	0002                	.insn	2, 0x0002
   6:	0000                	.insn	2, 0x
   8:	0000                	.insn	2, 0x
   a:	0004                	.insn	2, 0x0004
   c:	0000                	.insn	2, 0x
   e:	0000                	.insn	2, 0x
  10:	1250                	.insn	2, 0x1250
  12:	0000                	.insn	2, 0x
  14:	00b4                	.insn	2, 0x00b4
	...

Disassembly of section .debug_str:

00000000 <.debug_str>:
   0:	2e2e                	.insn	2, 0x2e2e
   2:	2f2e2e2f          	.insn	4, 0x2f2e2e2f
   6:	2e2e                	.insn	2, 0x2e2e
   8:	672f2e2f          	.insn	4, 0x672f2e2f
   c:	6c2f6363          	bltu	t5,sp,6d2 <cd-0x92e>
  10:	6269                	.insn	2, 0x6269
  12:	2f636367          	.insn	4, 0x2f636367
  16:	666e6f63          	bltu	t3,t1,694 <cd-0x96c>
  1a:	6769                	.insn	2, 0x6769
  1c:	7369722f          	.insn	4, 0x7369722f
  20:	642f7663          	bgeu	t5,sp,66c <cd-0x994>
  24:	7669                	.insn	2, 0x7669
  26:	532e                	.insn	2, 0x532e
  28:	2f00                	.insn	2, 0x2f00
  2a:	6f68                	.insn	2, 0x6f68
  2c:	656d                	.insn	2, 0x656d
  2e:	706b772f          	.insn	4, 0x706b772f
  32:	7369722f          	.insn	4, 0x7369722f
  36:	672d7663          	bgeu	s10,s2,6a2 <cd-0x95e>
  3a:	756e                	.insn	2, 0x756e
  3c:	742d                	.insn	2, 0x742d
  3e:	636c6f6f          	jal	t5,c6674 <__heap_start+0xc4674>
  42:	6168                	.insn	2, 0x6168
  44:	6e69                	.insn	2, 0x6e69
  46:	6975622f          	.insn	4, 0x6975622f
  4a:	646c                	.insn	2, 0x646c
  4c:	672d                	.insn	2, 0x672d
  4e:	6e2d6363          	bltu	s10,sp,734 <cd-0x8cc>
  52:	7765                	.insn	2, 0x7765
  54:	696c                	.insn	2, 0x696c
  56:	2d62                	.insn	2, 0x2d62
  58:	67617473          	.insn	4, 0x67617473
  5c:	3265                	.insn	2, 0x3265
  5e:	7369722f          	.insn	4, 0x7369722f
  62:	32337663          	bgeu	t1,gp,38e <cd-0xc72>
  66:	752d                	.insn	2, 0x752d
  68:	6b6e                	.insn	2, 0x6b6e
  6a:	6f6e                	.insn	2, 0x6f6e
  6c:	652d6e77          	.insn	4, 0x652d6e77
  70:	666c                	.insn	2, 0x666c
  72:	62696c2f          	.insn	4, 0x62696c2f
  76:	00636367          	.insn	4, 0x00636367
  7a:	20554e47          	.insn	4, 0x20554e47
  7e:	5341                	.insn	2, 0x5341
  80:	3220                	.insn	2, 0x3220
  82:	342e                	.insn	2, 0x342e
  84:	0031                	.insn	2, 0x0031
  86:	5f5f 6964 7376      	.insn	6, 0x737669645f5f
  8c:	3369                	.insn	2, 0x3369
  8e:	5f00                	.insn	2, 0x5f00
  90:	685f 6469 6564      	.insn	6, 0x65646469685f
  96:	5f6e                	.insn	2, 0x5f6e
  98:	5f5f 6475 7669      	.insn	6, 0x766964755f5f
  9e:	00336973          	.insn	4, 0x00336973
  a2:	5f5f 6d75 646f      	.insn	6, 0x646f6d755f5f
  a8:	00336973          	.insn	4, 0x00336973
  ac:	5f5f 6f6d 7364      	.insn	6, 0x73646f6d5f5f
  b2:	3369                	.insn	2, 0x3369
	...
