
/home/zsq259/Desktop/1/RISC-V-CPU/riscv/testspace/test.om:     file format elf32-littleriscv


Disassembly of section .rom:

00000000 <.rom>:
   0:	00020137          	lui	sp,0x20
   4:	0d4010ef          	jal	10d8 <main>
   8:	0ff00513          	li	a0,255
   c:	000306b7          	lui	a3,0x30
  10:	00a68223          	sb	a0,4(a3) # 30004 <__heap_start+0x2e004>
  14:	ff9ff06f          	j	c <__mulsi3-0xff4>

Disassembly of section .text:

00001000 <__mulsi3>:
    1000:	00050613          	mv	a2,a0
    1004:	00000513          	li	a0,0
    1008:	0015f693          	and	a3,a1,1
    100c:	00068463          	beqz	a3,1014 <__mulsi3+0x14>
    1010:	00c50533          	add	a0,a0,a2
    1014:	0015d593          	srl	a1,a1,0x1
    1018:	00161613          	sll	a2,a2,0x1
    101c:	fe0596e3          	bnez	a1,1008 <__mulsi3+0x8>
    1020:	00008067          	ret

00001024 <__divsi3>:
    1024:	06054063          	bltz	a0,1084 <__umodsi3+0x10>
    1028:	0605c663          	bltz	a1,1094 <__umodsi3+0x20>

0000102c <__hidden___udivsi3>:
    102c:	00058613          	mv	a2,a1
    1030:	00050593          	mv	a1,a0
    1034:	fff00513          	li	a0,-1
    1038:	02060c63          	beqz	a2,1070 <__hidden___udivsi3+0x44>
    103c:	00100693          	li	a3,1
    1040:	00b67a63          	bgeu	a2,a1,1054 <__hidden___udivsi3+0x28>
    1044:	00c05863          	blez	a2,1054 <__hidden___udivsi3+0x28>
    1048:	00161613          	sll	a2,a2,0x1
    104c:	00169693          	sll	a3,a3,0x1
    1050:	feb66ae3          	bltu	a2,a1,1044 <__hidden___udivsi3+0x18>
    1054:	00000513          	li	a0,0
    1058:	00c5e663          	bltu	a1,a2,1064 <__hidden___udivsi3+0x38>
    105c:	40c585b3          	sub	a1,a1,a2
    1060:	00d56533          	or	a0,a0,a3
    1064:	0016d693          	srl	a3,a3,0x1
    1068:	00165613          	srl	a2,a2,0x1
    106c:	fe0696e3          	bnez	a3,1058 <__hidden___udivsi3+0x2c>
    1070:	00008067          	ret

00001074 <__umodsi3>:
    1074:	00008293          	mv	t0,ra
    1078:	fb5ff0ef          	jal	102c <__hidden___udivsi3>
    107c:	00058513          	mv	a0,a1
    1080:	00028067          	jr	t0
    1084:	40a00533          	neg	a0,a0
    1088:	00b04863          	bgtz	a1,1098 <__umodsi3+0x24>
    108c:	40b005b3          	neg	a1,a1
    1090:	f9dff06f          	j	102c <__hidden___udivsi3>
    1094:	40b005b3          	neg	a1,a1
    1098:	00008293          	mv	t0,ra
    109c:	f91ff0ef          	jal	102c <__hidden___udivsi3>
    10a0:	40a00533          	neg	a0,a0
    10a4:	00028067          	jr	t0

000010a8 <__modsi3>:
    10a8:	00008293          	mv	t0,ra
    10ac:	0005ca63          	bltz	a1,10c0 <__modsi3+0x18>
    10b0:	00054c63          	bltz	a0,10c8 <__modsi3+0x20>
    10b4:	f79ff0ef          	jal	102c <__hidden___udivsi3>
    10b8:	00058513          	mv	a0,a1
    10bc:	00028067          	jr	t0
    10c0:	40b005b3          	neg	a1,a1
    10c4:	fe0558e3          	bgez	a0,10b4 <__modsi3+0xc>
    10c8:	40a00533          	neg	a0,a0
    10cc:	f61ff0ef          	jal	102c <__hidden___udivsi3>
    10d0:	40b00533          	neg	a0,a1
    10d4:	00028067          	jr	t0

Disassembly of section .text.startup:

000010d8 <main>:
    10d8:	f2010113          	add	sp,sp,-224 # 1ff20 <__heap_start+0x1df20>
    10dc:	000017b7          	lui	a5,0x1
    10e0:	00a00713          	li	a4,10
    10e4:	000016b7          	lui	a3,0x1
    10e8:	0b912a23          	sw	s9,180(sp)
    10ec:	32478c93          	add	s9,a5,804 # 1324 <__bss_start>
    10f0:	36e6ac23          	sw	a4,888(a3) # 1378 <N>
    10f4:	0c112e23          	sw	ra,220(sp)
    10f8:	0c812c23          	sw	s0,216(sp)
    10fc:	0c912a23          	sw	s1,212(sp)
    1100:	0d212823          	sw	s2,208(sp)
    1104:	0d312623          	sw	s3,204(sp)
    1108:	0d412423          	sw	s4,200(sp)
    110c:	0d512223          	sw	s5,196(sp)
    1110:	0d612023          	sw	s6,192(sp)
    1114:	0b712e23          	sw	s7,188(sp)
    1118:	0b812c23          	sw	s8,184(sp)
    111c:	0ba12823          	sw	s10,176(sp)
    1120:	0bb12623          	sw	s11,172(sp)
    1124:	32478793          	add	a5,a5,804
    1128:	02cc8693          	add	a3,s9,44
    112c:	00100713          	li	a4,1
    1130:	00e7a023          	sw	a4,0(a5)
    1134:	00478793          	add	a5,a5,4
    1138:	fed79ce3          	bne	a5,a3,1130 <main+0x58>
    113c:	008c8793          	add	a5,s9,8
    1140:	00f12623          	sw	a5,12(sp)
    1144:	03010b93          	add	s7,sp,48
    1148:	00200a13          	li	s4,2
    114c:	00a00c13          	li	s8,10
    1150:	01c10a93          	add	s5,sp,28
    1154:	00c12783          	lw	a5,12(sp)
    1158:	00001737          	lui	a4,0x1
    115c:	37472b03          	lw	s6,884(a4) # 1374 <M>
    1160:	0007a783          	lw	a5,0(a5)
    1164:	18078c63          	beqz	a5,12fc <main+0x224>
    1168:	001b0b13          	add	s6,s6,1
    116c:	002b1793          	sll	a5,s6,0x2
    1170:	09078793          	add	a5,a5,144
    1174:	01010693          	add	a3,sp,16
    1178:	00d787b3          	add	a5,a5,a3
    117c:	fffa0413          	add	s0,s4,-1
    1180:	37672a23          	sw	s6,884(a4)
    1184:	fd47a223          	sw	s4,-60(a5)
    1188:	008ba023          	sw	s0,0(s7)
    118c:	00000493          	li	s1,0
    1190:	07605e63          	blez	s6,120c <main+0x134>
    1194:	06810913          	add	s2,sp,104
    1198:	00100993          	li	s3,1
    119c:	0400006f          	j	11dc <main+0x104>
    11a0:	0006a023          	sw	zero,0(a3)
    11a4:	f05ff0ef          	jal	10a8 <__modsi3>
    11a8:	00050793          	mv	a5,a0
    11ac:	090d8713          	add	a4,s11,144
    11b0:	01010693          	add	a3,sp,16
    11b4:	00040593          	mv	a1,s0
    11b8:	fff48513          	add	a0,s1,-1
    11bc:	00d70d33          	add	s10,a4,a3
    11c0:	14078463          	beqz	a5,1308 <main+0x230>
    11c4:	e3dff0ef          	jal	1000 <__mulsi3>
    11c8:	f8ad2423          	sw	a0,-120(s10)
    11cc:	00198993          	add	s3,s3,1
    11d0:	000ba403          	lw	s0,0(s7)
    11d4:	00490913          	add	s2,s2,4
    11d8:	033b4663          	blt	s6,s3,1204 <main+0x12c>
    11dc:	00092483          	lw	s1,0(s2)
    11e0:	000a0593          	mv	a1,s4
    11e4:	00048513          	mv	a0,s1
    11e8:	e19ff0ef          	jal	1000 <__mulsi3>
    11ec:	00050793          	mv	a5,a0
    11f0:	00279d93          	sll	s11,a5,0x2
    11f4:	00048593          	mv	a1,s1
    11f8:	000a0513          	mv	a0,s4
    11fc:	01bc86b3          	add	a3,s9,s11
    1200:	fafc50e3          	bge	s8,a5,11a0 <main+0xc8>
    1204:	00000493          	li	s1,0
    1208:	0e044463          	bltz	s0,12f0 <main+0x218>
    120c:	00000993          	li	s3,0
    1210:	00a00593          	li	a1,10
    1214:	00040513          	mv	a0,s0
    1218:	e91ff0ef          	jal	10a8 <__modsi3>
    121c:	00098913          	mv	s2,s3
    1220:	00198993          	add	s3,s3,1
    1224:	03050793          	add	a5,a0,48
    1228:	013a8b33          	add	s6,s5,s3
    122c:	fefb0fa3          	sb	a5,-1(s6)
    1230:	00040513          	mv	a0,s0
    1234:	00a00593          	li	a1,10
    1238:	dedff0ef          	jal	1024 <__divsi3>
    123c:	00040b13          	mv	s6,s0
    1240:	00900793          	li	a5,9
    1244:	00050413          	mv	s0,a0
    1248:	fd67c4e3          	blt	a5,s6,1210 <main+0x138>
    124c:	00048e63          	beqz	s1,1268 <main+0x190>
    1250:	01010713          	add	a4,sp,16
    1254:	09098793          	add	a5,s3,144
    1258:	00e787b3          	add	a5,a5,a4
    125c:	02d00713          	li	a4,45
    1260:	f6e78e23          	sb	a4,-132(a5)
    1264:	00098913          	mv	s2,s3
    1268:	012a87b3          	add	a5,s5,s2
    126c:	0007c683          	lbu	a3,0(a5)
    1270:	00030637          	lui	a2,0x30
    1274:	00078713          	mv	a4,a5
    1278:	00d60023          	sb	a3,0(a2) # 30000 <__heap_start+0x2e000>
    127c:	fff78793          	add	a5,a5,-1
    1280:	feea96e3          	bne	s5,a4,126c <main+0x194>
    1284:	00a00793          	li	a5,10
    1288:	00030737          	lui	a4,0x30
    128c:	00f70023          	sb	a5,0(a4) # 30000 <__heap_start+0x2e000>
    1290:	000017b7          	lui	a5,0x1
    1294:	3787ac03          	lw	s8,888(a5) # 1378 <N>
    1298:	00c12783          	lw	a5,12(sp)
    129c:	001a0a13          	add	s4,s4,1
    12a0:	004b8b93          	add	s7,s7,4
    12a4:	00478793          	add	a5,a5,4
    12a8:	00f12623          	sw	a5,12(sp)
    12ac:	eb4c54e3          	bge	s8,s4,1154 <main+0x7c>
    12b0:	0dc12083          	lw	ra,220(sp)
    12b4:	0d812403          	lw	s0,216(sp)
    12b8:	0d412483          	lw	s1,212(sp)
    12bc:	0d012903          	lw	s2,208(sp)
    12c0:	0cc12983          	lw	s3,204(sp)
    12c4:	0c812a03          	lw	s4,200(sp)
    12c8:	0c412a83          	lw	s5,196(sp)
    12cc:	0c012b03          	lw	s6,192(sp)
    12d0:	0bc12b83          	lw	s7,188(sp)
    12d4:	0b812c03          	lw	s8,184(sp)
    12d8:	0b412c83          	lw	s9,180(sp)
    12dc:	0b012d03          	lw	s10,176(sp)
    12e0:	0ac12d83          	lw	s11,172(sp)
    12e4:	00000513          	li	a0,0
    12e8:	0e010113          	add	sp,sp,224
    12ec:	00008067          	ret
    12f0:	40800433          	neg	s0,s0
    12f4:	00100493          	li	s1,1
    12f8:	f15ff06f          	j	120c <main+0x134>
    12fc:	000ba403          	lw	s0,0(s7)
    1300:	e9604ae3          	bgtz	s6,1194 <main+0xbc>
    1304:	f01ff06f          	j	1204 <main+0x12c>
    1308:	00048513          	mv	a0,s1
    130c:	cf5ff0ef          	jal	1000 <__mulsi3>
    1310:	f8ad2423          	sw	a0,-120(s10)
    1314:	000ba403          	lw	s0,0(s7)
    1318:	00000493          	li	s1,0
    131c:	ee0458e3          	bgez	s0,120c <main+0x134>
    1320:	fd1ff06f          	j	12f0 <main+0x218>
